target datalayout = "e-m:e-p270:32:32-p271:32:32-p272:64:64-i64:64-i128:128-f80:128-n8:16:32:64-S128"
target triple = "x86_64-pc-linux-gnu"

%struct.dbd_step_comp_msg = type { i32, i64, i64, i32, ptr, i64, ptr, i32, i64, i16, %struct.slurm_step_id_msg, i32 }
%struct.slurm_step_id_msg = type { i64, i32, i32, i32 }

; Function Attrs: nounwind uwtable
define internal void @_pack_step_complete_msg(ptr noundef %0, i16 noundef zeroext %1, ptr noundef %2) #0 {
  %4 = alloca ptr, align 8
  %5 = alloca i16, align 2
  %6 = alloca ptr, align 8
  %7 = alloca i32, align 4
  store ptr %0, ptr %4, align 8
  store i16 %1, ptr %5, align 2
  store ptr %2, ptr %6, align 8
  %8 = load i16, ptr %5, align 2
  %9 = zext i16 %8 to i32
  %10 = icmp sge i32 %9, 10240
  br i1 %10, label %11, label %76

11:                                               ; preds = %3
  %12 = load ptr, ptr %4, align 8
  %13 = getelementptr inbounds nuw %struct.dbd_step_comp_msg, ptr %12, i32 0, i32 0
  %14 = load i32, ptr %13, align 8
  %15 = load ptr, ptr %6, align 8
  call void @pack32(i32 noundef %14, ptr noundef %15)
  %16 = load ptr, ptr %4, align 8
  %17 = getelementptr inbounds nuw %struct.dbd_step_comp_msg, ptr %16, i32 0, i32 1
  %18 = load i64, ptr %17, align 8
  %19 = load ptr, ptr %6, align 8
  call void @pack64(i64 noundef %18, ptr noundef %19)
  %20 = load ptr, ptr %4, align 8
  %21 = getelementptr inbounds nuw %struct.dbd_step_comp_msg, ptr %20, i32 0, i32 2
  %22 = load i64, ptr %21, align 8
  %23 = load ptr, ptr %6, align 8
  call void @pack_time(i64 noundef %22, ptr noundef %23)
  %24 = load ptr, ptr %4, align 8
  %25 = getelementptr inbounds nuw %struct.dbd_step_comp_msg, ptr %24, i32 0, i32 3
  %26 = load i32, ptr %25, align 8
  %27 = load ptr, ptr %6, align 8
  call void @pack32(i32 noundef %26, ptr noundef %27)
  %28 = load ptr, ptr %4, align 8
  %29 = getelementptr inbounds nuw %struct.dbd_step_comp_msg, ptr %28, i32 0, i32 4
  %30 = load ptr, ptr %29, align 8
  %31 = load i16, ptr %5, align 2
  %32 = load ptr, ptr %6, align 8
  call void @jobacctinfo_pack(ptr noundef %30, i16 noundef zeroext %31, i16 noundef zeroext 1, ptr noundef %32)
  %33 = load ptr, ptr %4, align 8
  %34 = getelementptr inbounds nuw %struct.dbd_step_comp_msg, ptr %33, i32 0, i32 5
  %35 = load i64, ptr %34, align 8
  %36 = load ptr, ptr %6, align 8
  call void @pack_time(i64 noundef %35, ptr noundef %36)
  br label %37

37:                                               ; preds = %11
  call void @llvm.lifetime.start.p0(i64 4, ptr %7) #5
  store i32 0, ptr %7, align 4
  %38 = load ptr, ptr %4, align 8
  %39 = getelementptr inbounds nuw %struct.dbd_step_comp_msg, ptr %38, i32 0, i32 6
  %40 = load ptr, ptr %39, align 8
  %41 = icmp ne ptr %40, null
  br i1 %41, label %42, label %49

42:                                               ; preds = %37
  %43 = load ptr, ptr %4, align 8
  %44 = getelementptr inbounds nuw %struct.dbd_step_comp_msg, ptr %43, i32 0, i32 6
  %45 = load ptr, ptr %44, align 8
  %46 = call i64 @strlen(ptr noundef %45) #6
  %47 = trunc i64 %46 to i32
  %48 = add i32 %47, 1
  store i32 %48, ptr %7, align 4
  br label %49

49:                                               ; preds = %42, %37
  %50 = load ptr, ptr %4, align 8
  %51 = getelementptr inbounds nuw %struct.dbd_step_comp_msg, ptr %50, i32 0, i32 6
  %52 = load ptr, ptr %51, align 8
  %53 = load i32, ptr %7, align 4
  %54 = load ptr, ptr %6, align 8
  call void @packmem(ptr noundef %52, i32 noundef %53, ptr noundef %54)
  call void @llvm.lifetime.end.p0(i64 4, ptr %7) #5
  br label %55

55:                                               ; preds = %49
  %56 = load ptr, ptr %4, align 8
  %57 = getelementptr inbounds nuw %struct.dbd_step_comp_msg, ptr %56, i32 0, i32 7
  %58 = load i32, ptr %57, align 8
  %59 = load ptr, ptr %6, align 8
  call void @pack32(i32 noundef %58, ptr noundef %59)
  %60 = load ptr, ptr %4, align 8
  %61 = getelementptr inbounds nuw %struct.dbd_step_comp_msg, ptr %60, i32 0, i32 8
  %62 = load i64, ptr %61, align 8
  %63 = load ptr, ptr %6, align 8
  call void @pack_time(i64 noundef %62, ptr noundef %63)
  %64 = load ptr, ptr %4, align 8
  %65 = getelementptr inbounds nuw %struct.dbd_step_comp_msg, ptr %64, i32 0, i32 9
  %66 = load i16, ptr %65, align 8
  %67 = load ptr, ptr %6, align 8
  call void @pack16(i16 noundef zeroext %66, ptr noundef %67)
  %68 = load ptr, ptr %4, align 8
  %69 = getelementptr inbounds nuw %struct.dbd_step_comp_msg, ptr %68, i32 0, i32 10
  %70 = load ptr, ptr %6, align 8
  %71 = load i16, ptr %5, align 2
  call void @pack_step_id(ptr noundef %69, ptr noundef %70, i16 noundef zeroext %71)
  %72 = load ptr, ptr %4, align 8
  %73 = getelementptr inbounds nuw %struct.dbd_step_comp_msg, ptr %72, i32 0, i32 11
  %74 = load i32, ptr %73, align 8
  %75 = load ptr, ptr %6, align 8
  call void @pack32(i32 noundef %74, ptr noundef %75)
  br label %76

76:                                               ; preds = %55, %3
  ret void
}