; Function Attrs: nounwind uwtable
define internal fastcc void @_pack_step_complete_msg(ptr noundef %0, i16 noundef zeroext %1, ptr noundef %2) unnamed_addr #0 {
  %4 = icmp ugt i16 %1, 10239
  br i1 %4, label %5, label %33

5:                                                ; preds = %3
  %6 = load i32, ptr %0, align 8
  tail call void @pack32(i32 noundef %6, ptr noundef %2) #5
  %7 = getelementptr inbounds nuw i8, ptr %0, i64 8
  %8 = load i64, ptr %7, align 8
  tail call void @pack64(i64 noundef %8, ptr noundef %2) #5
  %9 = getelementptr inbounds nuw i8, ptr %0, i64 16
  %10 = load i64, ptr %9, align 8
  tail call void @pack_time(i64 noundef %10, ptr noundef %2) #5
  %11 = getelementptr inbounds nuw i8, ptr %0, i64 24
  %12 = load i32, ptr %11, align 8
  tail call void @pack32(i32 noundef %12, ptr noundef %2) #5
  %13 = getelementptr inbounds nuw i8, ptr %0, i64 32
  %14 = load ptr, ptr %13, align 8
  tail call void @jobacctinfo_pack(ptr noundef %14, i16 noundef zeroext %1, i16 noundef zeroext 1, ptr noundef %2) #5
  %15 = getelementptr inbounds nuw i8, ptr %0, i64 40
  %16 = load i64, ptr %15, align 8
  tail call void @pack_time(i64 noundef %16, ptr noundef %2) #5
  %17 = getelementptr inbounds nuw i8, ptr %0, i64 48
  %18 = load ptr, ptr %17, align 8
  %.not = icmp eq ptr %18, null
  br i1 %.not, label %23, label %19

19:                                               ; preds = %5
  %20 = tail call i64 @strlen(ptr noundef nonnull dereferenceable(1) %18) #7
  %21 = trunc i64 %20 to i32
  %22 = add i32 %21, 1
  br label %23

23:                                               ; preds = %19, %5
  %.0 = phi i32 [ %22, %19 ], [ 0, %5 ]
  tail call void @packmem(ptr noundef %18, i32 noundef %.0, ptr noundef %2) #5
  %24 = getelementptr inbounds nuw i8, ptr %0, i64 56
  %25 = load i32, ptr %24, align 8
  tail call void @pack32(i32 noundef %25, ptr noundef %2) #5
  %26 = getelementptr inbounds nuw i8, ptr %0, i64 64
  %27 = load i64, ptr %26, align 8
  tail call void @pack_time(i64 noundef %27, ptr noundef %2) #5
  %28 = getelementptr inbounds nuw i8, ptr %0, i64 72
  %29 = load i16, ptr %28, align 8
  tail call void @pack16(i16 noundef zeroext %29, ptr noundef %2) #5
  %30 = getelementptr inbounds nuw i8, ptr %0, i64 80
  tail call void @pack_step_id(ptr noundef nonnull %30, ptr noundef %2, i16 noundef zeroext %1) #5
  %31 = getelementptr inbounds nuw i8, ptr %0, i64 104
  %32 = load i32, ptr %31, align 8
  tail call void @pack32(i32 noundef %32, ptr noundef %2) #5
  br label %33

33:                                               ; preds = %23, %3
  ret void
}